; Function Attrs: mustprogress nounwind uwtable
define hidden void @_ZN6Symbol18decrement_refcountEv(ptr noundef nonnull align 4 dereferenceable(8) %0) local_unnamed_addr #1 align 2 {
  %2 = load volatile i32, ptr %0, align 4
  br label %3

3:                                                ; preds = %6, %1
  %.0 = phi i32 [ %2, %1 ], [ %8, %6 ]
  %trunc = trunc i32 %.0 to i16
  switch i16 %trunc, label %6 [
    i16 -1, label %10
    i16 0, label %4
  ]

4:                                                ; preds = %3
  tail call void @_ZNK6Symbol5printEv(ptr noundef nonnull align 4 dereferenceable(8) %0)
  %5 = load ptr, ptr @g_assert_poison, align 8
  store i8 88, ptr %5, align 1
  tail call void (i32, ptr, i32, ptr, ...) @_Z12report_fatal11VMErrorTypePKciS1_z(i32 noundef -536870912, ptr noundef nonnull @.str.6, i32 noundef 335, ptr noundef nonnull @.str.8) #19
  unreachable

6:                                                ; preds = %3
  %7 = add i32 %.0, -1
  %8 = tail call noundef i32 asm sideeffect "lock cmpxchgl $1,($3)", "={ax},r,{ax},r,~{cc},~{memory},~{dirflag},~{fpsr},~{flags}"(i32 %7, i32 %.0, ptr nonnull %0) #17, !srcloc !15
  %9 = icmp eq i32 %8, %.0
  br i1 %9, label %10, label %3, !llvm.loop !17

10:                                               ; preds = %3, %6
  ret void
}